; Function Attrs: mustprogress nofree norecurse nosync nounwind willreturn memory(argmem: read) uwtable
define noundef float @_ZNK6Assimp11SpatialSort17CalculateDistanceERK10aiVector3tIfE(ptr noundef nonnull readonly align 8 captures(none) dereferenceable(49) %0, ptr noundef nonnull readonly align 4 captures(none) dereferenceable(12) %1) local_unnamed_addr #3 align 2 {
  %3 = getelementptr inbounds nuw i8, ptr %0, i64 12
  %4 = load float, ptr %1, align 4
  %5 = load float, ptr %3, align 4
  %6 = fsub float %4, %5
  %7 = getelementptr inbounds nuw i8, ptr %1, i64 4
  %8 = load float, ptr %7, align 4
  %9 = getelementptr inbounds nuw i8, ptr %0, i64 16
  %10 = load float, ptr %9, align 8
  %11 = fsub float %8, %10
  %12 = getelementptr inbounds nuw i8, ptr %1, i64 8
  %13 = load float, ptr %12, align 4
  %14 = getelementptr inbounds nuw i8, ptr %0, i64 20
  %15 = load float, ptr %14, align 4
  %16 = fsub float %13, %15
  %17 = load float, ptr %0, align 8
  %18 = getelementptr inbounds nuw i8, ptr %0, i64 4
  %19 = load float, ptr %18, align 4
  %20 = fmul float %11, %19
  %21 = tail call float @llvm.fmuladd.f32(float %6, float %17, float %20)
  %22 = getelementptr inbounds nuw i8, ptr %0, i64 8
  %23 = load float, ptr %22, align 8
  %24 = tail call noundef float @llvm.fmuladd.f32(float %16, float %23, float %21)
  ret float %24
}